; Function Attrs: nounwind uwtable
define dso_local void @linkFile(ptr noundef %0, ptr noundef %1, ptr noundef %2, ptr noundef %3) local_unnamed_addr #2 {
  %5 = tail call i32 @link(ptr noundef %0, ptr noundef %1) #10
  %6 = icmp slt i32 %5, 0
  br i1 %6, label %7, label %8

7:                                                ; preds = %4
  tail call void (ptr, ...) @pg_fatal(ptr noundef nonnull @.str.8, ptr noundef %2, ptr noundef %3, ptr noundef %0, ptr noundef %1) #11
  unreachable

8:                                                ; preds = %4
  ret void
}